(lp1
(dp2
S'objective'
p3
F-0.22318840579710139
sS'params'
p4
(lp5
(VC
cnumpy.core.multiarray
_reconstruct
p6
(cnumpy
ndarray
p7
(I0
tS'b'
tRp8
(I1
(I1
tcnumpy
dtype
p9
(S'f8'
I0
I1
tRp10
(I3
S'<'
NNNI-1
I-1
I0
tbI00
S'r+\xec/6\xe3\x13@'
tbtp11
a(Vgamma
p12
g6
(g7
(I0
tS'b'
tRp13
(I1
(I1
tg10
I00
S'\xef3D\xbc\xbf\xc9\x0f\xc0'
tbtp14
asa(dp15
g3
F-0.22318840579710139
sg4
(lp16
(VC
g6
(g7
(I0
tS'b'
tRp17
(I1
(I1
tg10
I00
S'\x00\x00\x00\x00\x00\x00\x10\xc0'
tbtp18
a(Vgamma
p19
g6
(g7
(I0
tS'b'
tRp20
(I1
(I1
tg10
I00
S'\x00\x00\x00\x00\x00\x00\x10\xc0'
tbtp21
asa(dp22
g3
F-0.22318840579710139
sg4
(lp23
(VC
g6
(g7
(I0
tS'b'
tRp24
(I1
(I1
tg10
I00
S'\x00\x00\x00\x00\x00\x00\xe0?'
tbtp25
a(Vgamma
p26
g6
(g7
(I0
tS'b'
tRp27
(I1
(I1
tg10
I00
S'\x00\x00\x00\x00\x00\x00\xe0?'
tbtp28
asa(dp29
g3
F-0.22318840579710139
sg4
(lp30
(VC
g6
(g7
(I0
tS'b'
tRp31
(I1
(I1
tg10
I00
S'\x00\x00\x00\x00\x00\x00\x10\xc0'
tbtp32
a(Vgamma
p33
g6
(g7
(I0
tS'b'
tRp34
(I1
(I1
tg10
I00
S'\x00\x00\x00\x00\x00\x00\x14@'
tbtp35
asa(dp36
g3
F-0.33115942028985512
sg4
(lp37
(VC
g6
(g7
(I0
tS'b'
tRp38
(I1
(I1
tg10
I00
S'\x00\x00\x00\x00\x00\x00\x14@'
tbtp39
a(Vgamma
p40
g6
(g7
(I0
tS'b'
tRp41
(I1
(I1
tg10
I00
S'4\xfe\x1e\xb0\x1e\xff\x13@'
tbtp42
asa.