(lp1
(dp2
S'objective'
p3
F-0.43405797101449273
sS'params'
p4
(lp5
(VC
cnumpy.core.multiarray
_reconstruct
p6
(cnumpy
ndarray
p7
(I0
tS'b'
tRp8
(I1
(I1
tcnumpy
dtype
p9
(S'f8'
I0
I1
tRp10
(I3
S'<'
NNNI-1
I-1
I0
tbI00
S'\x00\x00\x00\x00\x00\x00\x14@'
tbtp11
a(Vgamma
p12
g6
(g7
(I0
tS'b'
tRp13
(I1
(I1
tg10
I00
S'\x1co\xd8\r\x04\x07\xf4?'
tbtp14
asa(dp15
g3
F-0.1905797101449275
sg4
(lp16
(VC
g6
(g7
(I0
tS'b'
tRp17
(I1
(I1
tg10
I00
S'\x00\x00\x00\x00\x00\x00\x10\xc0'
tbtp18
a(Vgamma
p19
g6
(g7
(I0
tS'b'
tRp20
(I1
(I1
tg10
I00
S'\x00\x00\x00\x00\x00\x00\x10\xc0'
tbtp21
asa(dp22
g3
F-0.44782608695652182
sg4
(lp23
(VC
g6
(g7
(I0
tS'b'
tRp24
(I1
(I1
tg10
I00
S'\x00\x00\x00\x00\x00\x00\x14@'
tbtp25
a(Vgamma
p26
g6
(g7
(I0
tS'b'
tRp27
(I1
(I1
tg10
I00
S'\xa0\x95\x1eR\x99L\t@'
tbtp28
asa(dp29
g3
F-0.4355072463768116
sg4
(lp30
(VC
g6
(g7
(I0
tS'b'
tRp31
(I1
(I1
tg10
I00
S'\x14"\x08K;\xc4\x07@'
tbtp32
a(Vgamma
p33
g6
(g7
(I0
tS'b'
tRp34
(I1
(I1
tg10
I00
S't\xe1\x1a\xcb0\xd9\x05@'
tbtp35
asa(dp36
g3
F-0.31956521739130428
sg4
(lp37
(VC
g6
(g7
(I0
tS'b'
tRp38
(I1
(I1
tg10
I00
S'@\xb3\xce\xe6\x1f/\xd8\xbf'
tbtp39
a(Vgamma
p40
g6
(g7
(I0
tS'b'
tRp41
(I1
(I1
tg10
I00
S'\xa0\x1c\xcfVC-\x10@'
tbtp42
asa.